; ModuleID = '56/655.c'
source_filename = "56/655.c"
target datalayout = "e-m:e-p270:32:32-p271:32:32-p272:64:64-i64:64-f80:128-n8:16:32:64-S128"
target triple = "x86_64-pc-linux-gnu"

@.str = private unnamed_addr constant [4 x i8] c"%1d\00", align 1
@.str.1 = private unnamed_addr constant [3 x i8] c"%d\00", align 1

; Function Attrs: noinline nounwind uwtable
define dso_local i32 @main() #0 {
  %1 = alloca i32, align 4
  %2 = alloca [6 x i32], align 16
  %3 = alloca i32, align 4
  %4 = alloca i32, align 4
  store i32 0, i32* %1, align 4
  store i32 1, i32* %3, align 4
  br label %5

5:                                                ; preds = %11, %0
  %6 = load i32, i32* %3, align 4
  %7 = sext i32 %6 to i64
  %8 = getelementptr inbounds [6 x i32], [6 x i32]* %2, i64 0, i64 %7
  %9 = call i32 (i8*, ...) @__isoc99_scanf(i8* getelementptr inbounds ([4 x i8], [4 x i8]* @.str, i64 0, i64 0), i32* %8)
  %10 = icmp eq i32 %9, 1
  br i1 %10, label %11, label %14

11:                                               ; preds = %5
  %12 = load i32, i32* %3, align 4
  %13 = add nsw i32 %12, 1
  store i32 %13, i32* %3, align 4
  br label %5

14:                                               ; preds = %5
  %15 = load i32, i32* %3, align 4
  %16 = add nsw i32 %15, -1
  store i32 %16, i32* %3, align 4
  %17 = load i32, i32* %3, align 4
  store i32 %17, i32* %4, align 4
  br label %18

18:                                               ; preds = %27, %14
  %19 = load i32, i32* %4, align 4
  %20 = icmp sge i32 %19, 1
  br i1 %20, label %21, label %30

21:                                               ; preds = %18
  %22 = load i32, i32* %4, align 4
  %23 = sext i32 %22 to i64
  %24 = getelementptr inbounds [6 x i32], [6 x i32]* %2, i64 0, i64 %23
  %25 = load i32, i32* %24, align 4
  %26 = call i32 (i8*, ...) @printf(i8* getelementptr inbounds ([3 x i8], [3 x i8]* @.str.1, i64 0, i64 0), i32 %25)
  br label %27

27:                                               ; preds = %21
  %28 = load i32, i32* %4, align 4
  %29 = add nsw i32 %28, -1
  store i32 %29, i32* %4, align 4
  br label %18

30:                                               ; preds = %18
  %31 = load i32, i32* %1, align 4
  ret i32 %31
}

declare dso_local i32 @__isoc99_scanf(i8*, ...) #1

declare dso_local i32 @printf(i8*, ...) #1


!llvm.module.flags = !{!0}
!llvm.ident = !{!1}

!0 = !{i32 1, !"wchar_size", i32 4}
!1 = !{!"clang version 10.0.0-4ubuntu1 "}
